target datalayout = "e-m:e-p270:32:32-p271:32:32-p272:64:64-i64:64-i128:128-f80:128-n8:16:32:64-S128"
target triple = "x86_64-pc-linux-gnu"

%"class.absl::lts_20240722::log_internal::Voidify" = type { i8 }
%"class.absl::lts_20240722::log_internal::LogMessageFatal" = type { %"class.absl::lts_20240722::log_internal::LogMessage" }
%"class.absl::lts_20240722::log_internal::LogMessage" = type { %"class.absl::lts_20240722::base_internal::ErrnoSaver", %"class.std::unique_ptr" }
%"class.absl::lts_20240722::base_internal::ErrnoSaver" = type { i32 }
%"class.std::unique_ptr" = type { %"struct.std::__uniq_ptr_data" }
%"struct.std::__uniq_ptr_data" = type { %"class.std::__uniq_ptr_impl" }
%"class.std::__uniq_ptr_impl" = type { %"class.std::tuple" }
%"class.std::tuple" = type { %"struct.std::_Tuple_impl" }
%"struct.std::_Tuple_impl" = type { %"struct.std::_Head_base.1" }
%"struct.std::_Head_base.1" = type { ptr }
%"class.std::basic_string_view" = type { i64, ptr }
%struct.grpc_resolved_address = type { [128 x i8], i32 }
%struct.sockaddr = type { i16, [14 x i8] }
%struct.sockaddr_in6 = type { i16, i16, i32, %struct.in6_addr, i32 }
%struct.in6_addr = type { %union.anon }
%union.anon = type { [4 x i32] }
%struct.sockaddr_in = type { i16, i16, %struct.in_addr, [8 x i8] }
%struct.in_addr = type { i32 }

@.str = private unnamed_addr constant [132 x i8] c"generated/home/dtcxzyw/WorkSpace/Projects/compilers/llvm-opt-benchmark/bench/grpc/grpc/src/core/lib/address_utils/sockaddr_utils.cc\00", align 1
@.str.1 = private unnamed_addr constant [36 x i8] c"resolved_addr != resolved_addr4_out\00", align 1
@_ZL15kV4MappedPrefix = internal constant [12 x i8] c"\00\00\00\00\00\00\00\00\00\00\FF\FF", align 1

; Function Attrs: noinline noreturn nounwind uwtable
define linkonce_odr hidden void @__clang_call_terminate(ptr noundef %0) #17 comdat {
  %2 = call ptr @__cxa_begin_catch(ptr %0) #3
  call void @_ZSt9terminatev() #22
  unreachable
}

; Function Attrs: mustprogress nounwind uwtable
define linkonce_odr noundef i64 @_ZNSt11char_traitsIcE6lengthEPKc(ptr noundef %0) #7 comdat align 2 {
  %2 = alloca ptr, align 8
  store ptr %0, ptr %2, align 8, !tbaa !33
  %3 = load ptr, ptr %2, align 8, !tbaa !33
  %4 = call i64 @strlen(ptr noundef %3) #3
  ret i64 %4
}

; Function Attrs: mustprogress nounwind uwtable
define linkonce_odr void @_ZNKO4absl12lts_2024072212log_internal7VoidifyaaINS1_10LogMessageEEEvRKT_(ptr noundef nonnull align 1 dereferenceable(1) %0, ptr noundef nonnull align 8 dereferenceable(16) %1) #7 comdat align 2 {
  %3 = alloca ptr, align 8
  %4 = alloca ptr, align 8
  store ptr %0, ptr %3, align 8, !tbaa !27
  store ptr %1, ptr %4, align 8, !tbaa !29
  ret void
}

; Function Attrs: mustprogress nounwind uwtable
define linkonce_odr noundef nonnull align 8 dereferenceable(16) ptr @_ZN4absl12lts_2024072212log_internal10LogMessage14InternalStreamEv(ptr noundef nonnull align 8 dereferenceable(16) %0) #7 comdat align 2 {
  %2 = alloca ptr, align 8
  store ptr %0, ptr %2, align 8, !tbaa !29
  %3 = load ptr, ptr %2, align 8
  ret ptr %3
}

; Function Attrs: mustprogress nounwind uwtable
define linkonce_odr void @_ZNSt17basic_string_viewIcSt11char_traitsIcEEC2EPKc(ptr noundef nonnull align 8 dereferenceable(16) %0, ptr noundef nonnull %1) unnamed_addr #7 comdat align 2 personality ptr @__gxx_personality_v0 {
  %3 = alloca ptr, align 8
  %4 = alloca ptr, align 8
  store ptr %0, ptr %3, align 8, !tbaa !31
  store ptr %1, ptr %4, align 8, !tbaa !33
  %5 = load ptr, ptr %3, align 8
  %6 = getelementptr inbounds nuw %"class.std::basic_string_view", ptr %5, i32 0, i32 0
  %7 = load ptr, ptr %4, align 8, !tbaa !33
  %8 = invoke noundef i64 @_ZNSt11char_traitsIcE6lengthEPKc(ptr noundef %7)
          to label %9 unwind label %12

9:                                                ; preds = %2
  store i64 %8, ptr %6, align 8, !tbaa !35
  %10 = getelementptr inbounds nuw %"class.std::basic_string_view", ptr %5, i32 0, i32 1
  %11 = load ptr, ptr %4, align 8, !tbaa !33
  store ptr %11, ptr %10, align 8, !tbaa !38
  ret void

12:                                               ; preds = %2
  %13 = landingpad { ptr, i32 }
          catch ptr null
  %14 = extractvalue { ptr, i32 } %13, 0
  call void @__clang_call_terminate(ptr %14) #22
  unreachable
}

; Function Attrs: mustprogress uwtable
define noundef i32 @_Z25grpc_sockaddr_is_v4mappedPK21grpc_resolved_addressPS_(ptr noundef %0, ptr noundef %1) #4 personality ptr @__gxx_personality_v0 {
  %3 = alloca i32, align 4
  %4 = alloca ptr, align 8
  %5 = alloca ptr, align 8
  %6 = alloca %"class.absl::lts_20240722::log_internal::Voidify", align 1
  %7 = alloca %"class.absl::lts_20240722::log_internal::LogMessageFatal", align 8
  %8 = alloca i1, align 1
  %9 = alloca %"class.std::basic_string_view", align 8
  %10 = alloca i1, align 1
  %11 = alloca ptr, align 8
  %12 = alloca i32, align 4
  %13 = alloca ptr, align 8
  %14 = alloca ptr, align 8
  %15 = alloca ptr, align 8
  %16 = alloca i32, align 4
  store ptr %0, ptr %4, align 8, !tbaa !3
  store ptr %1, ptr %5, align 8, !tbaa !3
  %17 = load ptr, ptr %4, align 8, !tbaa !3
  %18 = load ptr, ptr %5, align 8, !tbaa !3
  %19 = icmp ne ptr %17, %18
  %20 = xor i1 %19, true
  %21 = zext i1 %20 to i64
  %22 = call i64 @llvm.expect.i64(i64 %21, i64 0)
  %23 = icmp ne i64 %22, 0
  call void @llvm.lifetime.start.p0(i64 1, ptr %6) #3
  store i1 false, ptr %8, align 1
  store i1 false, ptr %10, align 1
  br i1 %23, label %25, label %24

24:                                               ; preds = %2
  br label %33

25:                                               ; preds = %2
  call void @llvm.lifetime.start.p0(i64 16, ptr %7) #3
  store i1 true, ptr %8, align 1
  call void @_ZNSt17basic_string_viewIcSt11char_traitsIcEEC2EPKc(ptr noundef nonnull align 8 dereferenceable(16) %9, ptr noundef @.str.1) #3
  %26 = getelementptr inbounds nuw { i64, ptr }, ptr %9, i32 0, i32 0
  %27 = load i64, ptr %26, align 8
  %28 = getelementptr inbounds nuw { i64, ptr }, ptr %9, i32 0, i32 1
  %29 = load ptr, ptr %28, align 8
  call void @_ZN4absl12lts_2024072212log_internal15LogMessageFatalC1EPKciSt17basic_string_viewIcSt11char_traitsIcEE(ptr noundef nonnull align 8 dereferenceable(16) %7, ptr noundef @.str, i32 noundef 112, i64 %27, ptr %29) #21
  store i1 true, ptr %10, align 1
  %30 = invoke noundef nonnull align 8 dereferenceable(16) ptr @_ZN4absl12lts_2024072212log_internal10LogMessage14InternalStreamEv(ptr noundef nonnull align 8 dereferenceable(16) %7)
          to label %31 unwind label %36

31:                                               ; preds = %25
  invoke void @_ZNKO4absl12lts_2024072212log_internal7VoidifyaaINS1_10LogMessageEEEvRKT_(ptr noundef nonnull align 1 dereferenceable(1) %6, ptr noundef nonnull align 8 dereferenceable(16) %30)
          to label %32 unwind label %36

32:                                               ; preds = %31
  br label %33

33:                                               ; preds = %32, %24
  %34 = load i1, ptr %10, align 1
  br i1 %34, label %35, label %42

35:                                               ; preds = %33
  call void @_ZN4absl12lts_2024072212log_internal15LogMessageFatalD1Ev(ptr noundef nonnull align 8 dereferenceable(16) %7) #22
  unreachable

36:                                               ; preds = %31, %25
  %37 = landingpad { ptr, i32 }
          cleanup
  %38 = extractvalue { ptr, i32 } %37, 0
  store ptr %38, ptr %11, align 8
  %39 = extractvalue { ptr, i32 } %37, 1
  store i32 %39, ptr %12, align 4
  %40 = load i1, ptr %10, align 1
  br i1 %40, label %91, label %93

41:                                               ; No predecessors!
  br label %42

42:                                               ; preds = %41, %33
  %43 = load i1, ptr %8, align 1
  br i1 %43, label %44, label %45

44:                                               ; preds = %42
  call void @llvm.lifetime.end.p0(i64 16, ptr %7) #3
  br label %45

45:                                               ; preds = %44, %42
  call void @llvm.lifetime.end.p0(i64 1, ptr %6) #3
  call void @llvm.lifetime.start.p0(i64 8, ptr %13) #3
  %46 = load ptr, ptr %4, align 8, !tbaa !3
  %47 = getelementptr inbounds nuw %struct.grpc_resolved_address, ptr %46, i32 0, i32 0
  %48 = getelementptr inbounds [128 x i8], ptr %47, i64 0, i64 0
  store ptr %48, ptr %13, align 8, !tbaa !8
  call void @llvm.lifetime.start.p0(i64 8, ptr %14) #3
  %49 = load ptr, ptr %5, align 8, !tbaa !3
  %50 = icmp eq ptr %49, null
  br i1 %50, label %51, label %52

51:                                               ; preds = %45
  br label %56

52:                                               ; preds = %45
  %53 = load ptr, ptr %5, align 8, !tbaa !3
  %54 = getelementptr inbounds nuw %struct.grpc_resolved_address, ptr %53, i32 0, i32 0
  %55 = getelementptr inbounds [128 x i8], ptr %54, i64 0, i64 0
  br label %56

56:                                               ; preds = %52, %51
  %57 = phi ptr [ null, %51 ], [ %55, %52 ]
  store ptr %57, ptr %14, align 8, !tbaa !10
  %58 = load ptr, ptr %13, align 8, !tbaa !8
  %59 = getelementptr inbounds nuw %struct.sockaddr, ptr %58, i32 0, i32 0
  %60 = load i16, ptr %59, align 2, !tbaa !12
  %61 = zext i16 %60 to i32
  %62 = icmp eq i32 %61, 10
  br i1 %62, label %63, label %102

63:                                               ; preds = %56
  call void @llvm.lifetime.start.p0(i64 8, ptr %15) #3
  %64 = load ptr, ptr %13, align 8, !tbaa !8
  store ptr %64, ptr %15, align 8, !tbaa !15
  %65 = load ptr, ptr %15, align 8, !tbaa !15
  %66 = getelementptr inbounds nuw %struct.sockaddr_in6, ptr %65, i32 0, i32 3
  %67 = getelementptr inbounds nuw %struct.in6_addr, ptr %66, i32 0, i32 0
  %68 = getelementptr inbounds [16 x i8], ptr %67, i64 0, i64 0
  %69 = call i32 @memcmp(ptr noundef %68, ptr noundef @_ZL15kV4MappedPrefix, i64 noundef 12) #23
  %70 = icmp eq i32 %69, 0
  br i1 %70, label %71, label %98

71:                                               ; preds = %63
  %72 = load ptr, ptr %5, align 8, !tbaa !3
  %73 = icmp ne ptr %72, null
  br i1 %73, label %74, label %97

74:                                               ; preds = %71
  %75 = load ptr, ptr %5, align 8, !tbaa !3
  call void @llvm.memset.p0.i64(ptr align 4 %75, i8 0, i64 132, i1 false)
  %76 = load ptr, ptr %14, align 8, !tbaa !10
  %77 = getelementptr inbounds nuw %struct.sockaddr_in, ptr %76, i32 0, i32 0
  store i16 2, ptr %77, align 4, !tbaa !17
  %78 = load ptr, ptr %14, align 8, !tbaa !10
  %79 = getelementptr inbounds nuw %struct.sockaddr_in, ptr %78, i32 0, i32 2
  %80 = load ptr, ptr %15, align 8, !tbaa !15
  %81 = getelementptr inbounds nuw %struct.sockaddr_in6, ptr %80, i32 0, i32 3
  %82 = getelementptr inbounds nuw %struct.in6_addr, ptr %81, i32 0, i32 0
  %83 = getelementptr inbounds [16 x i8], ptr %82, i64 0, i64 12
  call void @llvm.memcpy.p0.p0.i64(ptr align 4 %79, ptr align 4 %83, i64 4, i1 false)
  %84 = load ptr, ptr %15, align 8, !tbaa !15
  %85 = getelementptr inbounds nuw %struct.sockaddr_in6, ptr %84, i32 0, i32 1
  %86 = load i16, ptr %85, align 2, !tbaa !21
  %87 = load ptr, ptr %14, align 8, !tbaa !10
  %88 = getelementptr inbounds nuw %struct.sockaddr_in, ptr %87, i32 0, i32 1
  store i16 %86, ptr %88, align 2, !tbaa !24
  %89 = load ptr, ptr %5, align 8, !tbaa !3
  %90 = getelementptr inbounds nuw %struct.grpc_resolved_address, ptr %89, i32 0, i32 1
  store i32 16, ptr %90, align 4, !tbaa !25
  br label %97

91:                                               ; preds = %36
  call void @_ZN4absl12lts_2024072212log_internal15LogMessageFatalD1Ev(ptr noundef nonnull align 8 dereferenceable(16) %7) #22
  unreachable

92:                                               ; No predecessors!
  br label %93

93:                                               ; preds = %92, %36
  %94 = load i1, ptr %8, align 1
  br i1 %94, label %95, label %96

95:                                               ; preds = %93
  call void @llvm.lifetime.end.p0(i64 16, ptr %7) #3
  br label %96

96:                                               ; preds = %95, %93
  call void @llvm.lifetime.end.p0(i64 1, ptr %6) #3
  br label %105

97:                                               ; preds = %74, %71
  store i32 1, ptr %3, align 4
  store i32 1, ptr %16, align 4
  br label %99

98:                                               ; preds = %63
  store i32 0, ptr %16, align 4
  br label %99

99:                                               ; preds = %98, %97
  call void @llvm.lifetime.end.p0(i64 8, ptr %15) #3
  %100 = load i32, ptr %16, align 4
  switch i32 %100, label %103 [
    i32 0, label %101
  ]

101:                                              ; preds = %99
  br label %102

102:                                              ; preds = %101, %56
  store i32 0, ptr %3, align 4
  store i32 1, ptr %16, align 4
  br label %103

103:                                              ; preds = %102, %99
  call void @llvm.lifetime.end.p0(i64 8, ptr %14) #3
  call void @llvm.lifetime.end.p0(i64 8, ptr %13) #3
  %104 = load i32, ptr %3, align 4
  ret i32 %104

105:                                              ; preds = %96
  %106 = load ptr, ptr %11, align 8
  %107 = load i32, ptr %12, align 4
  %108 = insertvalue { ptr, i32 } poison, ptr %106, 0
  %109 = insertvalue { ptr, i32 } %108, i32 %107, 1
  resume { ptr, i32 } %109
}