; Function Attrs: mustprogress uwtable
define noundef range(i32 0, 2) i32 @_Z25grpc_sockaddr_is_v4mappedPK21grpc_resolved_addressPS_(ptr noundef readonly %0, ptr noundef writeonly %1) local_unnamed_addr #3 personality ptr @__gxx_personality_v0 {
  %3 = alloca %"class.absl::lts_20240722::log_internal::LogMessageFatal", align 8
  %.not = icmp eq ptr %0, %1
  br i1 %.not, label %4, label %.critedge, !prof !3

4:                                                ; preds = %2
  call void @llvm.lifetime.start.p0(i64 16, ptr nonnull %3) #23
  call void @_ZN4absl12lts_2024072212log_internal15LogMessageFatalC1EPKciSt17basic_string_viewIcSt11char_traitsIcEE(ptr noundef nonnull align 8 dereferenceable(16) %3, ptr noundef nonnull @.str, i32 noundef 112, i64 35, ptr nonnull @.str.1) #24
  call void @_ZN4absl12lts_2024072212log_internal15LogMessageFatalD1Ev(ptr noundef nonnull align 8 dereferenceable(16) %3) #25
  unreachable

.critedge:                                        ; preds = %2
  %5 = load i16, ptr %0, align 2, !tbaa !4
  %6 = icmp eq i16 %5, 10
  br i1 %6, label %7, label %.critedge26

7:                                                ; preds = %.critedge
  %8 = getelementptr inbounds nuw i8, ptr %0, i64 8
  %bcmp = tail call i32 @bcmp(ptr noundef nonnull dereferenceable(12) %8, ptr noundef nonnull dereferenceable(12) @_ZL15kV4MappedPrefix, i64 12)
  %.not24 = icmp eq i32 %bcmp, 0
  br i1 %.not24, label %9, label %.critedge26

9:                                                ; preds = %7
  %.not23 = icmp eq ptr %1, null
  br i1 %.not23, label %.critedge26, label %10

10:                                               ; preds = %9
  tail call void @llvm.memset.p0.i64(ptr noundef nonnull align 4 dereferenceable(132) %1, i8 0, i64 132, i1 false)
  store i16 2, ptr %1, align 4, !tbaa !9
  %11 = getelementptr inbounds nuw i8, ptr %1, i64 4
  %12 = getelementptr inbounds nuw i8, ptr %0, i64 20
  %13 = load i32, ptr %12, align 4
  store i32 %13, ptr %11, align 4
  %14 = getelementptr inbounds nuw i8, ptr %0, i64 2
  %15 = load i16, ptr %14, align 2, !tbaa !13
  %16 = getelementptr inbounds nuw i8, ptr %1, i64 2
  store i16 %15, ptr %16, align 2, !tbaa !16
  %17 = getelementptr inbounds nuw i8, ptr %1, i64 128
  store i32 16, ptr %17, align 4, !tbaa !17
  br label %.critedge26

.critedge26:                                      ; preds = %.critedge, %7, %10, %9
  %.1 = phi i32 [ 1, %9 ], [ 1, %10 ], [ 0, %7 ], [ 0, %.critedge ]
  ret i32 %.1
}